; ModuleID = 'source-C-CXX/12/861.cpp'
source_filename = "source-C-CXX/12/861.cpp"
target datalayout = "e-m:e-p270:32:32-p271:32:32-p272:64:64-i64:64-f80:128-n8:16:32:64-S128"
target triple = "x86_64-pc-linux-gnu"

%"class.std::ios_base::Init" = type { i8 }
%"class.std::basic_istream" = type { i32 (...)**, i64, %"class.std::basic_ios" }
%"class.std::basic_ios" = type { %"class.std::ios_base", %"class.std::basic_ostream"*, i8, i8, %"class.std::basic_streambuf"*, %"class.std::ctype"*, %"class.std::num_put"*, %"class.std::num_get"* }
%"class.std::ios_base" = type { i32 (...)**, i64, i64, i32, i32, i32, %"struct.std::ios_base::_Callback_list"*, %"struct.std::ios_base::_Words", [8 x %"struct.std::ios_base::_Words"], i32, %"struct.std::ios_base::_Words"*, %"class.std::locale" }
%"struct.std::ios_base::_Callback_list" = type { %"struct.std::ios_base::_Callback_list"*, void (i32, %"class.std::ios_base"*, i32)*, i32, i32 }
%"struct.std::ios_base::_Words" = type { i8*, i64 }
%"class.std::locale" = type { %"class.std::locale::_Impl"* }
%"class.std::locale::_Impl" = type { i32, %"class.std::locale::facet"**, i64, %"class.std::locale::facet"**, i8** }
%"class.std::locale::facet" = type <{ i32 (...)**, i32, [4 x i8] }>
%"class.std::basic_ostream" = type { i32 (...)**, %"class.std::basic_ios" }
%"class.std::basic_streambuf" = type { i32 (...)**, i8*, i8*, i8*, i8*, i8*, i8*, %"class.std::locale" }
%"class.std::ctype" = type <{ %"class.std::locale::facet.base", [4 x i8], %struct.__locale_struct*, i8, [7 x i8], i32*, i32*, i16*, i8, [256 x i8], [256 x i8], i8, [6 x i8] }>
%"class.std::locale::facet.base" = type <{ i32 (...)**, i32 }>
%struct.__locale_struct = type { [13 x %struct.__locale_data*], i16*, i32*, i32*, [13 x i8*] }
%struct.__locale_data = type opaque
%"class.std::num_put" = type { %"class.std::locale::facet.base", [4 x i8] }
%"class.std::num_get" = type { %"class.std::locale::facet.base", [4 x i8] }

@_ZStL8__ioinit = internal global %"class.std::ios_base::Init" zeroinitializer, align 1
@__dso_handle = external hidden global i8
@_ZSt3cin = external global %"class.std::basic_istream", align 8
@_ZSt4cout = external global %"class.std::basic_ostream", align 8
@llvm.global_ctors = appending global [1 x { i32, void ()*, i8* }] [{ i32, void ()*, i8* } { i32 65535, void ()* @_GLOBAL__sub_I_861.cpp, i8* null }]

declare void @_ZNSt8ios_base4InitC1Ev(%"class.std::ios_base::Init"* nonnull align 1 dereferenceable(1)) unnamed_addr #0

; Function Attrs: nounwind
declare void @_ZNSt8ios_base4InitD1Ev(%"class.std::ios_base::Init"* nonnull align 1 dereferenceable(1)) unnamed_addr #1

; Function Attrs: nofree nounwind
declare i32 @__cxa_atexit(void (i8*)*, i8*, i8*) local_unnamed_addr #2

; Function Attrs: mustprogress norecurse sspstrong uwtable
define dso_local i32 @main() local_unnamed_addr #3 {
  %1 = alloca i8, align 1
  %2 = alloca i32, align 4
  %3 = bitcast i32* %2 to i8*
  call void @llvm.lifetime.start.p0i8(i64 4, i8* nonnull %3) #7
  %4 = call nonnull align 8 dereferenceable(16) %"class.std::basic_istream"* @_ZNSirsERi(%"class.std::basic_istream"* nonnull align 8 dereferenceable(16) @_ZSt3cin, i32* nonnull align 4 dereferenceable(4) %2)
  %5 = load i32, i32* %2, align 4, !tbaa !5
  %6 = add nsw i32 %5, 1
  %7 = zext i32 %6 to i64
  %8 = call i8* @llvm.stacksave()
  %9 = alloca i32, i64 %7, align 16
  %10 = load i32, i32* %2, align 4, !tbaa !5
  %11 = sext i32 %10 to i64
  %12 = getelementptr inbounds i32, i32* %9, i64 %11
  store i32 0, i32* %12, align 4, !tbaa !5
  %13 = icmp sgt i32 %10, 0
  br i1 %13, label %16, label %147

14:                                               ; preds = %16
  %15 = icmp sgt i32 %21, 0
  br i1 %15, label %32, label %147

16:                                               ; preds = %0, %16
  %17 = phi i64 [ %20, %16 ], [ 0, %0 ]
  %18 = getelementptr inbounds i32, i32* %9, i64 %17
  %19 = call nonnull align 8 dereferenceable(16) %"class.std::basic_istream"* @_ZNSirsERi(%"class.std::basic_istream"* nonnull align 8 dereferenceable(16) @_ZSt3cin, i32* nonnull align 4 dereferenceable(4) %18)
  %20 = add nuw nsw i64 %17, 1
  %21 = load i32, i32* %2, align 4, !tbaa !5
  %22 = sext i32 %21 to i64
  %23 = icmp slt i64 %20, %22
  br i1 %23, label %16, label %14, !llvm.loop !9

24:                                               ; preds = %128
  %25 = sext i32 %129 to i64
  br label %26

26:                                               ; preds = %24, %32
  %27 = phi i64 [ %25, %24 ], [ %37, %32 ]
  %28 = phi i32 [ %129, %24 ], [ %33, %32 ]
  %29 = icmp slt i64 %35, %27
  br i1 %29, label %32, label %30, !llvm.loop !11

30:                                               ; preds = %26
  %31 = icmp sgt i32 %28, 1
  br i1 %31, label %134, label %147

32:                                               ; preds = %14, %26
  %33 = phi i32 [ %28, %26 ], [ %21, %14 ]
  %34 = phi i64 [ %35, %26 ], [ 0, %14 ]
  %35 = add nuw nsw i64 %34, 1
  %36 = getelementptr inbounds i32, i32* %9, i64 %34
  %37 = sext i32 %33 to i64
  %38 = icmp slt i64 %35, %37
  br i1 %38, label %39, label %26

39:                                               ; preds = %32
  %40 = trunc i64 %35 to i32
  br label %41

41:                                               ; preds = %39, %128
  %42 = phi i32 [ %129, %128 ], [ %33, %39 ]
  %43 = phi i32 [ %130, %128 ], [ %33, %39 ]
  %44 = phi i32 [ %132, %128 ], [ %40, %39 ]
  %45 = sext i32 %44 to i64
  %46 = getelementptr inbounds i32, i32* %9, i64 %45
  %47 = load i32, i32* %46, align 4, !tbaa !5
  %48 = load i32, i32* %36, align 4, !tbaa !5
  %49 = icmp eq i32 %47, %48
  br i1 %49, label %50, label %128

50:                                               ; preds = %41
  %51 = icmp slt i32 %44, %43
  br i1 %51, label %52, label %125

52:                                               ; preds = %50
  %53 = sext i32 %43 to i64
  %54 = sext i32 %43 to i64
  %55 = sub nsw i64 %54, %45
  %56 = icmp ult i64 %55, 8
  br i1 %56, label %116, label %57

57:                                               ; preds = %52
  %58 = and i64 %55, -8
  %59 = add nsw i64 %58, %45
  %60 = add nsw i64 %58, -8
  %61 = lshr exact i64 %60, 3
  %62 = add nuw nsw i64 %61, 1
  %63 = and i64 %62, 1
  %64 = icmp eq i64 %60, 0
  br i1 %64, label %98, label %65

65:                                               ; preds = %57
  %66 = and i64 %62, 4611686018427387902
  br label %67

67:                                               ; preds = %67, %65
  %68 = phi i64 [ 0, %65 ], [ %95, %67 ]
  %69 = phi i64 [ %66, %65 ], [ %96, %67 ]
  %70 = add i64 %68, %45
  %71 = add nsw i64 %70, 1
  %72 = getelementptr inbounds i32, i32* %9, i64 %71
  %73 = bitcast i32* %72 to <4 x i32>*
  %74 = load <4 x i32>, <4 x i32>* %73, align 4, !tbaa !5
  %75 = getelementptr inbounds i32, i32* %72, i64 4
  %76 = bitcast i32* %75 to <4 x i32>*
  %77 = load <4 x i32>, <4 x i32>* %76, align 4, !tbaa !5
  %78 = getelementptr inbounds i32, i32* %9, i64 %70
  %79 = bitcast i32* %78 to <4 x i32>*
  store <4 x i32> %74, <4 x i32>* %79, align 4, !tbaa !5
  %80 = getelementptr inbounds i32, i32* %78, i64 4
  %81 = bitcast i32* %80 to <4 x i32>*
  store <4 x i32> %77, <4 x i32>* %81, align 4, !tbaa !5
  %82 = or i64 %68, 8
  %83 = add i64 %82, %45
  %84 = add nsw i64 %83, 1
  %85 = getelementptr inbounds i32, i32* %9, i64 %84
  %86 = bitcast i32* %85 to <4 x i32>*
  %87 = load <4 x i32>, <4 x i32>* %86, align 4, !tbaa !5
  %88 = getelementptr inbounds i32, i32* %85, i64 4
  %89 = bitcast i32* %88 to <4 x i32>*
  %90 = load <4 x i32>, <4 x i32>* %89, align 4, !tbaa !5
  %91 = getelementptr inbounds i32, i32* %9, i64 %83
  %92 = bitcast i32* %91 to <4 x i32>*
  store <4 x i32> %87, <4 x i32>* %92, align 4, !tbaa !5
  %93 = getelementptr inbounds i32, i32* %91, i64 4
  %94 = bitcast i32* %93 to <4 x i32>*
  store <4 x i32> %90, <4 x i32>* %94, align 4, !tbaa !5
  %95 = add nuw i64 %68, 16
  %96 = add i64 %69, -2
  %97 = icmp eq i64 %96, 0
  br i1 %97, label %98, label %67, !llvm.loop !12

98:                                               ; preds = %67, %57
  %99 = phi i64 [ 0, %57 ], [ %95, %67 ]
  %100 = icmp eq i64 %63, 0
  br i1 %100, label %114, label %101

101:                                              ; preds = %98
  %102 = add i64 %99, %45
  %103 = add nsw i64 %102, 1
  %104 = getelementptr inbounds i32, i32* %9, i64 %103
  %105 = bitcast i32* %104 to <4 x i32>*
  %106 = load <4 x i32>, <4 x i32>* %105, align 4, !tbaa !5
  %107 = getelementptr inbounds i32, i32* %104, i64 4
  %108 = bitcast i32* %107 to <4 x i32>*
  %109 = load <4 x i32>, <4 x i32>* %108, align 4, !tbaa !5
  %110 = getelementptr inbounds i32, i32* %9, i64 %102
  %111 = bitcast i32* %110 to <4 x i32>*
  store <4 x i32> %106, <4 x i32>* %111, align 4, !tbaa !5
  %112 = getelementptr inbounds i32, i32* %110, i64 4
  %113 = bitcast i32* %112 to <4 x i32>*
  store <4 x i32> %109, <4 x i32>* %113, align 4, !tbaa !5
  br label %114

114:                                              ; preds = %98, %101
  %115 = icmp eq i64 %55, %58
  br i1 %115, label %125, label %116

116:                                              ; preds = %52, %114
  %117 = phi i64 [ %45, %52 ], [ %59, %114 ]
  br label %118

118:                                              ; preds = %116, %118
  %119 = phi i64 [ %120, %118 ], [ %117, %116 ]
  %120 = add nsw i64 %119, 1
  %121 = getelementptr inbounds i32, i32* %9, i64 %120
  %122 = load i32, i32* %121, align 4, !tbaa !5
  %123 = getelementptr inbounds i32, i32* %9, i64 %119
  store i32 %122, i32* %123, align 4, !tbaa !5
  %124 = icmp eq i64 %120, %53
  br i1 %124, label %125, label %118, !llvm.loop !14

125:                                              ; preds = %118, %114, %50
  %126 = add nsw i32 %43, -1
  store i32 %126, i32* %2, align 4, !tbaa !5
  %127 = add nsw i32 %44, -1
  br label %128

128:                                              ; preds = %41, %125
  %129 = phi i32 [ %126, %125 ], [ %42, %41 ]
  %130 = phi i32 [ %126, %125 ], [ %43, %41 ]
  %131 = phi i32 [ %127, %125 ], [ %44, %41 ]
  %132 = add nsw i32 %131, 1
  %133 = icmp slt i32 %132, %130
  br i1 %133, label %41, label %24, !llvm.loop !16

134:                                              ; preds = %30, %134
  %135 = phi i64 [ %140, %134 ], [ 0, %30 ]
  %136 = getelementptr inbounds i32, i32* %9, i64 %135
  %137 = load i32, i32* %136, align 4, !tbaa !5
  %138 = call nonnull align 8 dereferenceable(8) %"class.std::basic_ostream"* @_ZNSolsEi(%"class.std::basic_ostream"* nonnull align 8 dereferenceable(8) @_ZSt4cout, i32 %137)
  call void @llvm.lifetime.start.p0i8(i64 1, i8* nonnull %1)
  store i8 32, i8* %1, align 1, !tbaa !17
  %139 = call nonnull align 8 dereferenceable(8) %"class.std::basic_ostream"* @_ZSt16__ostream_insertIcSt11char_traitsIcEERSt13basic_ostreamIT_T0_ES6_PKS3_l(%"class.std::basic_ostream"* nonnull align 8 dereferenceable(8) %138, i8* nonnull %1, i64 1)
  call void @llvm.lifetime.end.p0i8(i64 1, i8* nonnull %1)
  %140 = add nuw nsw i64 %135, 1
  %141 = load i32, i32* %2, align 4, !tbaa !5
  %142 = add nsw i32 %141, -1
  %143 = sext i32 %142 to i64
  %144 = icmp slt i64 %140, %143
  br i1 %144, label %134, label %145, !llvm.loop !18

145:                                              ; preds = %134
  %146 = and i64 %140, 4294967295
  br label %147

147:                                              ; preds = %0, %14, %145, %30
  %148 = phi i64 [ 0, %30 ], [ %146, %145 ], [ 0, %14 ], [ 0, %0 ]
  %149 = getelementptr inbounds i32, i32* %9, i64 %148
  %150 = load i32, i32* %149, align 4, !tbaa !5
  %151 = icmp eq i32 %150, 0
  br i1 %151, label %154, label %152

152:                                              ; preds = %147
  %153 = call nonnull align 8 dereferenceable(8) %"class.std::basic_ostream"* @_ZNSolsEi(%"class.std::basic_ostream"* nonnull align 8 dereferenceable(8) @_ZSt4cout, i32 %150)
  br label %154

154:                                              ; preds = %152, %147
  call void @llvm.stackrestore(i8* %8)
  call void @llvm.lifetime.end.p0i8(i64 4, i8* nonnull %3) #7
  ret i32 0
}

; Function Attrs: argmemonly mustprogress nofree nosync nounwind willreturn
declare void @llvm.lifetime.start.p0i8(i64 immarg, i8* nocapture) #4

declare nonnull align 8 dereferenceable(16) %"class.std::basic_istream"* @_ZNSirsERi(%"class.std::basic_istream"* nonnull align 8 dereferenceable(16), i32* nonnull align 4 dereferenceable(4)) local_unnamed_addr #0

; Function Attrs: mustprogress nofree nosync nounwind willreturn
declare i8* @llvm.stacksave() #5

declare nonnull align 8 dereferenceable(8) %"class.std::basic_ostream"* @_ZNSolsEi(%"class.std::basic_ostream"* nonnull align 8 dereferenceable(8), i32) local_unnamed_addr #0

; Function Attrs: mustprogress nofree nosync nounwind willreturn
declare void @llvm.stackrestore(i8*) #5

; Function Attrs: argmemonly mustprogress nofree nosync nounwind willreturn
declare void @llvm.lifetime.end.p0i8(i64 immarg, i8* nocapture) #4

declare nonnull align 8 dereferenceable(8) %"class.std::basic_ostream"* @_ZSt16__ostream_insertIcSt11char_traitsIcEERSt13basic_ostreamIT_T0_ES6_PKS3_l(%"class.std::basic_ostream"* nonnull align 8 dereferenceable(8), i8*, i64) local_unnamed_addr #0

; Function Attrs: sspstrong uwtable
define internal void @_GLOBAL__sub_I_861.cpp() #6 section ".text.startup" {
  tail call void @_ZNSt8ios_base4InitC1Ev(%"class.std::ios_base::Init"* nonnull align 1 dereferenceable(1) @_ZStL8__ioinit)
  %1 = tail call i32 @__cxa_atexit(void (i8*)* bitcast (void (%"class.std::ios_base::Init"*)* @_ZNSt8ios_base4InitD1Ev to void (i8*)*), i8* getelementptr inbounds (%"class.std::ios_base::Init", %"class.std::ios_base::Init"* @_ZStL8__ioinit, i64 0, i32 0), i8* nonnull @__dso_handle) #7
  ret void
}


!llvm.module.flags = !{!0, !1, !2, !3}
!llvm.ident = !{!4}

!0 = !{i32 1, !"wchar_size", i32 4}
!1 = !{i32 7, !"PIC Level", i32 2}
!2 = !{i32 7, !"PIE Level", i32 2}
!3 = !{i32 7, !"uwtable", i32 1}
!4 = !{!"clang version 13.0.0"}
!5 = !{!6, !6, i64 0}
!6 = !{!"int", !7, i64 0}
!7 = !{!"omnipotent char", !8, i64 0}
!8 = !{!"Simple C++ TBAA"}
!9 = distinct !{!9, !10}
!10 = !{!"llvm.loop.mustprogress"}
!11 = distinct !{!11, !10}
!12 = distinct !{!12, !10, !13}
!13 = !{!"llvm.loop.isvectorized", i32 1}
!14 = distinct !{!14, !10, !15, !13}
!15 = !{!"llvm.loop.unroll.runtime.disable"}
!16 = distinct !{!16, !10}
!17 = !{!7, !7, i64 0}
!18 = distinct !{!18, !10}
